; Function Attrs: mustprogress uwtable
define hidden noundef ptr @_ZN4cvc58internal6theory2ff18TheoryFiniteFields17getTheoryRewriterEv(ptr noundef nonnull align 8 dereferenceable(768) %0) unnamed_addr #4 align 2 {
  %2 = tail call noundef nonnull align 8 dereferenceable(408) ptr @_ZNK4cvc58internal6EnvObj7optionsEv(ptr noundef nonnull align 8 dereferenceable(16) %0)
  %3 = getelementptr inbounds nuw i8, ptr %2, i64 280
  %4 = load ptr, ptr %3, align 8, !tbaa !78
  %5 = load i8, ptr %4, align 4, !tbaa !262, !range !66, !noundef !67
  %6 = trunc nuw i8 %5 to i1
  %7 = getelementptr inbounds nuw i8, ptr %0, i64 280
  %.0 = select i1 %6, ptr %7, ptr null
  ret ptr %.0
}